; Function Attrs: nounwind uwtable
define internal fastcc void @_make_node_unavail(ptr noundef captures(none) %0) unnamed_addr #0 {
  %2 = getelementptr inbounds nuw i8, ptr %0, i64 320
  %3 = load i32, ptr %2, align 8
  %4 = and i32 %3, -1025
  store i32 %4, ptr %2, align 8
  %5 = load ptr, ptr @avail_node_bitmap, align 8
  %6 = getelementptr inbounds nuw i8, ptr %0, i64 208
  %7 = load i32, ptr %6, align 8
  %8 = zext i32 %7 to i64
  tail call void @bit_clear(ptr noundef %5, i64 noundef %8) #15
  %9 = load ptr, ptr @cg_node_bitmap, align 8
  %10 = load i32, ptr %6, align 8
  %11 = zext i32 %10 to i64
  tail call void @bit_clear(ptr noundef %9, i64 noundef %11) #15
  %12 = load ptr, ptr @idle_node_bitmap, align 8
  %13 = load i32, ptr %6, align 8
  %14 = zext i32 %13 to i64
  tail call void @bit_set(ptr noundef %12, i64 noundef %14) #15
  %15 = load ptr, ptr @share_node_bitmap, align 8
  %16 = load i32, ptr %6, align 8
  %17 = zext i32 %16 to i64
  tail call void @bit_set(ptr noundef %15, i64 noundef %17) #15
  %18 = load ptr, ptr @up_node_bitmap, align 8
  %19 = load i32, ptr %6, align 8
  %20 = zext i32 %19 to i64
  tail call void @bit_clear(ptr noundef %18, i64 noundef %20) #15
  ret void
}